target datalayout = "e-m:e-p270:32:32-p271:32:32-p272:64:64-i64:64-i128:128-f80:128-n8:16:32:64-S128"
target triple = "x86_64-pc-linux-gnu"

%struct.bio_msg_st = type { ptr, i64, ptr, ptr, i64 }

@docorrupt = internal global i32 0, align 4

; Function Attrs: nounwind uwtable
define internal i32 @on_datagram_cb(ptr noundef %0, ptr noundef %1, i64 noundef %2, ptr noundef %3) #0 {
  %5 = alloca i32, align 4
  %6 = alloca ptr, align 8
  %7 = alloca ptr, align 8
  %8 = alloca i64, align 8
  %9 = alloca ptr, align 8
  store ptr %0, ptr %6, align 8, !tbaa !19
  store ptr %1, ptr %7, align 8, !tbaa !31
  store i64 %2, ptr %8, align 8, !tbaa !17
  store ptr %3, ptr %9, align 8, !tbaa !23
  %10 = load i32, ptr @docorrupt, align 4, !tbaa !9
  %11 = icmp ne i32 %10, 0
  br i1 %11, label %12, label %17

12:                                               ; preds = %4
  %13 = load ptr, ptr %7, align 8, !tbaa !31
  %14 = getelementptr inbounds nuw %struct.bio_msg_st, ptr %13, i32 0, i32 1
  %15 = load i64, ptr %14, align 8, !tbaa !33
  %16 = icmp eq i64 %15, 0
  br i1 %16, label %17, label %18

17:                                               ; preds = %12, %4
  store i32 1, ptr %5, align 4
  br label %28

18:                                               ; preds = %12
  %19 = load ptr, ptr %6, align 8, !tbaa !19
  %20 = load ptr, ptr %7, align 8, !tbaa !31
  %21 = getelementptr inbounds nuw %struct.bio_msg_st, ptr %20, i32 0, i32 1
  %22 = load i64, ptr %21, align 8, !tbaa !33
  %23 = sub i64 %22, 1
  %24 = call i32 @qtest_fault_resize_datagram(ptr noundef %19, i64 noundef %23)
  %25 = icmp ne i32 %24, 0
  br i1 %25, label %27, label %26

26:                                               ; preds = %18
  store i32 1, ptr %5, align 4
  br label %28

27:                                               ; preds = %18
  store i32 0, ptr @docorrupt, align 4, !tbaa !9
  store i32 1, ptr %5, align 4
  br label %28

28:                                               ; preds = %27, %26, %17
  %29 = load i32, ptr %5, align 4
  ret i32 %29
}