; Function Attrs: nounwind uwtable
define internal noundef i32 @on_datagram_cb(ptr noundef %0, ptr noundef readonly captures(none) %1, i64 %2, ptr readnone captures(none) %3) #1 {
  %.b = load i1, ptr @docorrupt, align 4
  br i1 %.b, label %5, label %13

5:                                                ; preds = %4
  %6 = getelementptr inbounds nuw i8, ptr %1, i64 8
  %7 = load i64, ptr %6, align 8, !tbaa !22
  %8 = icmp eq i64 %7, 0
  br i1 %8, label %13, label %9

9:                                                ; preds = %5
  %10 = add i64 %7, -1
  %11 = tail call i32 @qtest_fault_resize_datagram(ptr noundef %0, i64 noundef %10) #4
  %.not = icmp eq i32 %11, 0
  br i1 %.not, label %13, label %12

12:                                               ; preds = %9
  store i1 false, ptr @docorrupt, align 4
  br label %13

13:                                               ; preds = %9, %4, %5, %12
  ret i32 1
}